target datalayout = "e-m:e-p270:32:32-p271:32:32-p272:64:64-i64:64-i128:128-f80:128-n8:16:32:64-S128"
target triple = "x86_64-pc-linux-gnu"

; Function Attrs: nounwind uwtable
define internal i32 @encodeUTF8(ptr noundef %0, ptr noundef %1, i32 noundef %2, i32 noundef %3) #0 {
  %5 = alloca ptr, align 8
  %6 = alloca ptr, align 8
  %7 = alloca i32, align 4
  %8 = alloca i32, align 4
  %9 = alloca i32, align 4
  %10 = alloca i32, align 4
  %11 = alloca i32, align 4
  store ptr %0, ptr %5, align 8
  store ptr %1, ptr %6, align 8
  store i32 %2, ptr %7, align 4
  store i32 %3, ptr %8, align 4
  store i32 0, ptr %9, align 4
  store i32 0, ptr %10, align 4
  store i32 0, ptr %11, align 4
  br label %12

12:                                               ; preds = %186, %4
  %13 = load ptr, ptr %6, align 8
  %14 = load i32, ptr %13, align 4
  %15 = icmp ne i32 %14, 0
  br i1 %15, label %16, label %20

16:                                               ; preds = %12
  %17 = load i32, ptr %11, align 4
  %18 = load i32, ptr %7, align 4
  %19 = icmp ult i32 %17, %18
  br label %20

20:                                               ; preds = %16, %12
  %21 = phi i1 [ false, %12 ], [ %19, %16 ]
  br i1 %21, label %22, label %191

22:                                               ; preds = %20
  %23 = load ptr, ptr %6, align 8
  %24 = load i32, ptr %23, align 4
  %25 = icmp sge i32 %24, 55296
  br i1 %25, label %26, label %36

26:                                               ; preds = %22
  %27 = load ptr, ptr %6, align 8
  %28 = load i32, ptr %27, align 4
  %29 = icmp sle i32 %28, 56319
  br i1 %29, label %30, label %36

30:                                               ; preds = %26
  %31 = load ptr, ptr %6, align 8
  %32 = load i32, ptr %31, align 4
  %33 = sub nsw i32 %32, 55296
  %34 = shl i32 %33, 10
  %35 = add nsw i32 %34, 65536
  store i32 %35, ptr %9, align 4
  br label %186

36:                                               ; preds = %26, %22
  %37 = load ptr, ptr %6, align 8
  %38 = load i32, ptr %37, align 4
  %39 = icmp sge i32 %38, 56320
  br i1 %39, label %40, label %50

40:                                               ; preds = %36
  %41 = load ptr, ptr %6, align 8
  %42 = load i32, ptr %41, align 4
  %43 = icmp sle i32 %42, 57343
  br i1 %43, label %44, label %50

44:                                               ; preds = %40
  %45 = load ptr, ptr %6, align 8
  %46 = load i32, ptr %45, align 4
  %47 = sub nsw i32 %46, 56320
  %48 = load i32, ptr %9, align 4
  %49 = or i32 %48, %47
  store i32 %49, ptr %9, align 4
  br label %53

50:                                               ; preds = %40, %36
  %51 = load ptr, ptr %6, align 8
  %52 = load i32, ptr %51, align 4
  store i32 %52, ptr %9, align 4
  br label %53

53:                                               ; preds = %50, %44
  %54 = load i32, ptr %9, align 4
  %55 = icmp ule i32 %54, 127
  br i1 %55, label %56, label %72

56:                                               ; preds = %53
  %57 = load ptr, ptr %5, align 8
  %58 = icmp ne ptr %57, null
  br i1 %58, label %59, label %69

59:                                               ; preds = %56
  %60 = load i32, ptr %10, align 4
  %61 = add i32 %60, 1
  %62 = load i32, ptr %8, align 4
  %63 = icmp ult i32 %61, %62
  br i1 %63, label %64, label %69

64:                                               ; preds = %59
  %65 = load i32, ptr %9, align 4
  %66 = trunc i32 %65 to i8
  %67 = load ptr, ptr %5, align 8
  %68 = getelementptr inbounds i8, ptr %67, i32 1
  store ptr %68, ptr %5, align 8
  store i8 %66, ptr %67, align 1
  br label %69

69:                                               ; preds = %64, %59, %56
  %70 = load i32, ptr %10, align 4
  %71 = add i32 %70, 1
  store i32 %71, ptr %10, align 4
  br label %185

72:                                               ; preds = %53
  %73 = load i32, ptr %9, align 4
  %74 = icmp ule i32 %73, 2047
  br i1 %74, label %75, label %103

75:                                               ; preds = %72
  %76 = load ptr, ptr %5, align 8
  %77 = icmp ne ptr %76, null
  br i1 %77, label %78, label %100

78:                                               ; preds = %75
  %79 = load i32, ptr %8, align 4
  %80 = icmp ugt i32 %79, 0
  br i1 %80, label %81, label %100

81:                                               ; preds = %78
  %82 = load i32, ptr %10, align 4
  %83 = add i32 %82, 2
  %84 = load i32, ptr %8, align 4
  %85 = icmp ult i32 %83, %84
  br i1 %85, label %86, label %100

86:                                               ; preds = %81
  %87 = load i32, ptr %9, align 4
  %88 = lshr i32 %87, 6
  %89 = and i32 %88, 31
  %90 = or i32 192, %89
  %91 = trunc i32 %90 to i8
  %92 = load ptr, ptr %5, align 8
  %93 = getelementptr inbounds i8, ptr %92, i32 1
  store ptr %93, ptr %5, align 8
  store i8 %91, ptr %92, align 1
  %94 = load i32, ptr %9, align 4
  %95 = and i32 %94, 63
  %96 = or i32 128, %95
  %97 = trunc i32 %96 to i8
  %98 = load ptr, ptr %5, align 8
  %99 = getelementptr inbounds i8, ptr %98, i32 1
  store ptr %99, ptr %5, align 8
  store i8 %97, ptr %98, align 1
  br label %100

100:                                              ; preds = %86, %81, %78, %75
  %101 = load i32, ptr %10, align 4
  %102 = add i32 %101, 2
  store i32 %102, ptr %10, align 4
  br label %184

103:                                              ; preds = %72
  %104 = load i32, ptr %9, align 4
  %105 = icmp ule i32 %104, 65535
  br i1 %105, label %106, label %141

106:                                              ; preds = %103
  %107 = load ptr, ptr %5, align 8
  %108 = icmp ne ptr %107, null
  br i1 %108, label %109, label %138

109:                                              ; preds = %106
  %110 = load i32, ptr %8, align 4
  %111 = icmp ugt i32 %110, 0
  br i1 %111, label %112, label %138

112:                                              ; preds = %109
  %113 = load i32, ptr %10, align 4
  %114 = add i32 %113, 3
  %115 = load i32, ptr %8, align 4
  %116 = icmp ult i32 %114, %115
  br i1 %116, label %117, label %138

117:                                              ; preds = %112
  %118 = load i32, ptr %9, align 4
  %119 = lshr i32 %118, 12
  %120 = and i32 %119, 15
  %121 = or i32 224, %120
  %122 = trunc i32 %121 to i8
  %123 = load ptr, ptr %5, align 8
  %124 = getelementptr inbounds i8, ptr %123, i32 1
  store ptr %124, ptr %5, align 8
  store i8 %122, ptr %123, align 1
  %125 = load i32, ptr %9, align 4
  %126 = lshr i32 %125, 6
  %127 = and i32 %126, 63
  %128 = or i32 128, %127
  %129 = trunc i32 %128 to i8
  %130 = load ptr, ptr %5, align 8
  %131 = getelementptr inbounds i8, ptr %130, i32 1
  store ptr %131, ptr %5, align 8
  store i8 %129, ptr %130, align 1
  %132 = load i32, ptr %9, align 4
  %133 = and i32 %132, 63
  %134 = or i32 128, %133
  %135 = trunc i32 %134 to i8
  %136 = load ptr, ptr %5, align 8
  %137 = getelementptr inbounds i8, ptr %136, i32 1
  store ptr %137, ptr %5, align 8
  store i8 %135, ptr %136, align 1
  br label %138

138:                                              ; preds = %117, %112, %109, %106
  %139 = load i32, ptr %10, align 4
  %140 = add i32 %139, 3
  store i32 %140, ptr %10, align 4
  br label %183

141:                                              ; preds = %103
  %142 = load ptr, ptr %5, align 8
  %143 = icmp ne ptr %142, null
  br i1 %143, label %144, label %180

144:                                              ; preds = %141
  %145 = load i32, ptr %8, align 4
  %146 = icmp ugt i32 %145, 0
  br i1 %146, label %147, label %180

147:                                              ; preds = %144
  %148 = load i32, ptr %10, align 4
  %149 = add i32 %148, 4
  %150 = load i32, ptr %8, align 4
  %151 = icmp ult i32 %149, %150
  br i1 %151, label %152, label %180

152:                                              ; preds = %147
  %153 = load i32, ptr %9, align 4
  %154 = lshr i32 %153, 18
  %155 = and i32 %154, 7
  %156 = or i32 240, %155
  %157 = trunc i32 %156 to i8
  %158 = load ptr, ptr %5, align 8
  %159 = getelementptr inbounds i8, ptr %158, i32 1
  store ptr %159, ptr %5, align 8
  store i8 %157, ptr %158, align 1
  %160 = load i32, ptr %9, align 4
  %161 = lshr i32 %160, 12
  %162 = and i32 %161, 63
  %163 = or i32 128, %162
  %164 = trunc i32 %163 to i8
  %165 = load ptr, ptr %5, align 8
  %166 = getelementptr inbounds i8, ptr %165, i32 1
  store ptr %166, ptr %5, align 8
  store i8 %164, ptr %165, align 1
  %167 = load i32, ptr %9, align 4
  %168 = lshr i32 %167, 6
  %169 = and i32 %168, 63
  %170 = or i32 128, %169
  %171 = trunc i32 %170 to i8
  %172 = load ptr, ptr %5, align 8
  %173 = getelementptr inbounds i8, ptr %172, i32 1
  store ptr %173, ptr %5, align 8
  store i8 %171, ptr %172, align 1
  %174 = load i32, ptr %9, align 4
  %175 = and i32 %174, 63
  %176 = or i32 128, %175
  %177 = trunc i32 %176 to i8
  %178 = load ptr, ptr %5, align 8
  %179 = getelementptr inbounds i8, ptr %178, i32 1
  store ptr %179, ptr %5, align 8
  store i8 %177, ptr %178, align 1
  br label %180

180:                                              ; preds = %152, %147, %144, %141
  %181 = load i32, ptr %10, align 4
  %182 = add i32 %181, 4
  store i32 %182, ptr %10, align 4
  br label %183

183:                                              ; preds = %180, %138
  br label %184

184:                                              ; preds = %183, %100
  br label %185

185:                                              ; preds = %184, %69
  store i32 0, ptr %9, align 4
  br label %186

186:                                              ; preds = %185, %30
  %187 = load ptr, ptr %6, align 8
  %188 = getelementptr inbounds i32, ptr %187, i32 1
  store ptr %188, ptr %6, align 8
  %189 = load i32, ptr %11, align 4
  %190 = add i32 %189, 1
  store i32 %190, ptr %11, align 4
  br label %12, !llvm.loop !13

191:                                              ; preds = %20
  %192 = load i32, ptr %10, align 4
  ret i32 %192
}