; Function Attrs: nofree norecurse nosync nounwind memory(readwrite, inaccessiblemem: none) uwtable
define internal fastcc i32 @encodeUTF8(ptr noundef writeonly %0, ptr nocapture noundef readonly %1, i32 noundef %2, i32 noundef %3) unnamed_addr #5 {
  %5 = load i32, ptr %1, align 4
  %6 = icmp ne i32 %5, 0
  %7 = icmp ne i32 %2, 0
  %8 = and i1 %6, %7
  br i1 %8, label %.lr.ph, label %._crit_edge

.lr.ph:                                           ; preds = %4
  %9 = icmp ne i32 %3, 0
  br label %10

10:                                               ; preds = %.lr.ph, %._crit_edge86
  %11 = phi i32 [ %5, %.lr.ph ], [ %86, %._crit_edge86 ]
  %.085 = phi i32 [ 0, %.lr.ph ], [ %85, %._crit_edge86 ]
  %.06084 = phi i32 [ 0, %.lr.ph ], [ %.2, %._crit_edge86 ]
  %.06183 = phi i32 [ 0, %.lr.ph ], [ %.263, %._crit_edge86 ]
  %.06482 = phi ptr [ %0, %.lr.ph ], [ %.6, %._crit_edge86 ]
  %.06781 = phi ptr [ %1, %.lr.ph ], [ %84, %._crit_edge86 ]
  %12 = and i32 %11, -1024
  %or.cond73 = icmp eq i32 %12, 55296
  br i1 %or.cond73, label %13, label %16

13:                                               ; preds = %10
  %14 = shl nuw nsw i32 %11, 10
  %15 = add nsw i32 %14, -56557568
  br label %._crit_edge86

16:                                               ; preds = %10
  %or.cond74 = icmp eq i32 %12, 56320
  %17 = add nsw i32 %11, -56320
  %18 = or i32 %17, %.06183
  %.162 = select i1 %or.cond74, i32 %18, i32 %11
  %19 = icmp ult i32 %.162, 128
  br i1 %19, label %20, label %26

20:                                               ; preds = %16
  %.not = icmp eq ptr %.06482, null
  %.pre = add i32 %.06084, 1
  br i1 %.not, label %._crit_edge86, label %21

21:                                               ; preds = %20
  %22 = icmp ult i32 %.pre, %3
  br i1 %22, label %23, label %._crit_edge86

23:                                               ; preds = %21
  %24 = trunc nuw nsw i32 %.162 to i8
  %25 = getelementptr inbounds i8, ptr %.06482, i64 1
  store i8 %24, ptr %.06482, align 1
  br label %._crit_edge86

26:                                               ; preds = %16
  %27 = icmp ult i32 %.162, 2048
  br i1 %27, label %28, label %41

28:                                               ; preds = %26
  %29 = icmp ne ptr %.06482, null
  %or.cond = and i1 %9, %29
  %30 = add i32 %.06084, 2
  %31 = icmp ult i32 %30, %3
  %or.cond76 = select i1 %or.cond, i1 %31, i1 false
  br i1 %or.cond76, label %32, label %._crit_edge86

32:                                               ; preds = %28
  %33 = lshr i32 %.162, 6
  %34 = trunc nuw i32 %33 to i8
  %35 = or disjoint i8 %34, -64
  %36 = getelementptr inbounds i8, ptr %.06482, i64 1
  store i8 %35, ptr %.06482, align 1
  %37 = trunc i32 %.162 to i8
  %38 = and i8 %37, 63
  %39 = or disjoint i8 %38, -128
  %40 = getelementptr inbounds i8, ptr %.06482, i64 2
  store i8 %39, ptr %36, align 1
  br label %._crit_edge86

41:                                               ; preds = %26
  %42 = icmp ult i32 %.162, 65536
  %43 = icmp ne ptr %.06482, null
  %or.cond3 = and i1 %9, %43
  br i1 %42, label %44, label %61

44:                                               ; preds = %41
  %45 = add i32 %.06084, 3
  %46 = icmp ult i32 %45, %3
  %or.cond78 = select i1 %or.cond3, i1 %46, i1 false
  br i1 %or.cond78, label %47, label %._crit_edge86

47:                                               ; preds = %44
  %48 = lshr i32 %.162, 12
  %49 = trunc nuw i32 %48 to i8
  %50 = or disjoint i8 %49, -32
  %51 = getelementptr inbounds i8, ptr %.06482, i64 1
  store i8 %50, ptr %.06482, align 1
  %52 = lshr i32 %.162, 6
  %53 = trunc i32 %52 to i8
  %54 = and i8 %53, 63
  %55 = or disjoint i8 %54, -128
  %56 = getelementptr inbounds i8, ptr %.06482, i64 2
  store i8 %55, ptr %51, align 1
  %57 = trunc i32 %.162 to i8
  %58 = and i8 %57, 63
  %59 = or disjoint i8 %58, -128
  %60 = getelementptr inbounds i8, ptr %.06482, i64 3
  store i8 %59, ptr %56, align 1
  br label %._crit_edge86

61:                                               ; preds = %41
  %62 = add i32 %.06084, 4
  %63 = icmp ult i32 %62, %3
  %or.cond80 = select i1 %or.cond3, i1 %63, i1 false
  br i1 %or.cond80, label %64, label %._crit_edge86

64:                                               ; preds = %61
  %65 = lshr i32 %.162, 18
  %66 = trunc i32 %65 to i8
  %67 = and i8 %66, 7
  %68 = or disjoint i8 %67, -16
  %69 = getelementptr inbounds i8, ptr %.06482, i64 1
  store i8 %68, ptr %.06482, align 1
  %70 = lshr i32 %.162, 12
  %71 = trunc i32 %70 to i8
  %72 = and i8 %71, 63
  %73 = or disjoint i8 %72, -128
  %74 = getelementptr inbounds i8, ptr %.06482, i64 2
  store i8 %73, ptr %69, align 1
  %75 = lshr i32 %.162, 6
  %76 = trunc i32 %75 to i8
  %77 = and i8 %76, 63
  %78 = or disjoint i8 %77, -128
  %79 = getelementptr inbounds i8, ptr %.06482, i64 3
  store i8 %78, ptr %74, align 1
  %80 = trunc i32 %.162 to i8
  %81 = and i8 %80, 63
  %82 = or disjoint i8 %81, -128
  %83 = getelementptr inbounds i8, ptr %.06482, i64 4
  store i8 %82, ptr %79, align 1
  br label %._crit_edge86

._crit_edge86:                                    ; preds = %20, %21, %23, %61, %64, %44, %47, %28, %32, %13
  %.6 = phi ptr [ %.06482, %13 ], [ %40, %32 ], [ %.06482, %28 ], [ %60, %47 ], [ %.06482, %44 ], [ %83, %64 ], [ %.06482, %61 ], [ %25, %23 ], [ %.06482, %21 ], [ null, %20 ]
  %.263 = phi i32 [ %15, %13 ], [ 0, %32 ], [ 0, %28 ], [ 0, %47 ], [ 0, %44 ], [ 0, %64 ], [ 0, %61 ], [ 0, %23 ], [ 0, %21 ], [ 0, %20 ]
  %.2 = phi i32 [ %.06084, %13 ], [ %30, %32 ], [ %30, %28 ], [ %45, %47 ], [ %45, %44 ], [ %62, %64 ], [ %62, %61 ], [ %.pre, %23 ], [ %.pre, %21 ], [ %.pre, %20 ]
  %84 = getelementptr inbounds i8, ptr %.06781, i64 4
  %85 = add nuw nsw i32 %.085, 1
  %86 = load i32, ptr %84, align 4
  %87 = icmp ne i32 %86, 0
  %88 = icmp ult i32 %85, %2
  %89 = select i1 %87, i1 %88, i1 false
  br i1 %89, label %10, label %._crit_edge, !llvm.loop !14

._crit_edge:                                      ; preds = %._crit_edge86, %4
  %.060.lcssa = phi i32 [ 0, %4 ], [ %.2, %._crit_edge86 ]
  ret i32 %.060.lcssa
}